; Function Attrs: mustprogress nofree nounwind willreturn memory(readwrite, inaccessiblemem: write) uwtable
define internal noundef i32 @fsi(double noundef %0, ptr noundef readonly captures(none) %1, ptr noundef readonly captures(none) %2, ptr noundef readonly captures(none) %3) #5 {
  %5 = load double, ptr %3, align 8, !tbaa !12
  %6 = getelementptr inbounds nuw i8, ptr %3, i64 16
  %7 = load double, ptr %6, align 8, !tbaa !12
  %8 = load ptr, ptr %1, align 8, !tbaa !18
  %9 = getelementptr inbounds nuw i8, ptr %8, i64 16
  %10 = load ptr, ptr %9, align 8, !tbaa !21
  %11 = load double, ptr %10, align 8, !tbaa !12
  %12 = getelementptr inbounds nuw i8, ptr %10, i64 8
  %13 = load double, ptr %12, align 8, !tbaa !12
  %14 = tail call double @llvm.fmuladd.f64(double %11, double %11, double -1.000000e+00)
  %15 = tail call double @cos(double noundef %0) #9, !tbaa !26
  %16 = fmul double %15, 5.000000e-01
  %17 = fsub double %14, %16
  %18 = fmul double %11, 2.000000e+00
  %19 = fdiv double %17, %18
  %20 = tail call double @llvm.fmuladd.f64(double %13, double %13, double -2.000000e+00)
  %21 = getelementptr i8, ptr %3, i64 8
  %.val = load double, ptr %21, align 8, !tbaa !12
  %22 = fmul double %0, %.val
  %23 = tail call double @cos(double noundef %22) #9, !tbaa !26
  %24 = fsub double %20, %23
  %25 = fmul double %13, 2.000000e+00
  %26 = fdiv double %24, %25
  %27 = fmul double %7, %26
  %28 = tail call double @llvm.fmuladd.f64(double %5, double %19, double %27)
  %29 = load ptr, ptr %2, align 8, !tbaa !18
  %30 = getelementptr inbounds nuw i8, ptr %29, i64 16
  %31 = load ptr, ptr %30, align 8, !tbaa !21
  store double %28, ptr %31, align 8, !tbaa !12
  %32 = getelementptr inbounds nuw i8, ptr %31, i64 8
  store double 0.000000e+00, ptr %32, align 8, !tbaa !12
  ret i32 0
}